target datalayout = "e-m:e-p270:32:32-p271:32:32-p272:64:64-i64:64-i128:128-f80:128-n8:16:32:64-S128"
target triple = "x86_64-pc-linux-gnu"

%struct.cbuf = type { %union.pthread_mutex_t, i32, i32, i32, i32, i32, i32, i32, i32, i32, i32, ptr }
%union.pthread_mutex_t = type { %struct.__pthread_mutex_s }
%struct.__pthread_mutex_s = type { i32, i32, i32, i32, i32, i16, i16, %struct.__pthread_internal_list }
%struct.__pthread_internal_list = type { ptr, ptr }

@.str.2 = private unnamed_addr constant [29 x i8] c"%s: pthread_mutex_lock(): %m\00", align 1
@.str.3 = private unnamed_addr constant [31 x i8] c"%s: pthread_mutex_unlock(): %m\00", align 1
@__func__.cbuf_replay_to_fd = private unnamed_addr constant [18 x i8] c"cbuf_replay_to_fd\00", align 1

; Function Attrs: nounwind uwtable
define internal i32 @cbuf_replayer(ptr noundef %0, i32 noundef %1, ptr noundef %2, ptr noundef %3) #0 {
  %5 = alloca i32, align 4
  %6 = alloca ptr, align 8
  %7 = alloca i32, align 4
  %8 = alloca ptr, align 8
  %9 = alloca ptr, align 8
  %10 = alloca i32, align 4
  %11 = alloca i32, align 4
  %12 = alloca i32, align 4
  %13 = alloca i32, align 4
  %14 = alloca i32, align 4
  store ptr %0, ptr %6, align 8
  store i32 %1, ptr %7, align 4
  store ptr %2, ptr %8, align 8
  store ptr %3, ptr %9, align 8
  call void @llvm.lifetime.start.p0(i64 4, ptr %10) #8
  call void @llvm.lifetime.start.p0(i64 4, ptr %11) #8
  call void @llvm.lifetime.start.p0(i64 4, ptr %12) #8
  call void @llvm.lifetime.start.p0(i64 4, ptr %13) #8
  %15 = load ptr, ptr %6, align 8
  %16 = getelementptr inbounds nuw %struct.cbuf, ptr %15, i32 0, i32 9
  %17 = load i32, ptr %16, align 8
  %18 = load ptr, ptr %6, align 8
  %19 = getelementptr inbounds nuw %struct.cbuf, ptr %18, i32 0, i32 10
  %20 = load i32, ptr %19, align 4
  %21 = sub nsw i32 %17, %20
  %22 = load ptr, ptr %6, align 8
  %23 = getelementptr inbounds nuw %struct.cbuf, ptr %22, i32 0, i32 4
  %24 = load i32, ptr %23, align 4
  %25 = add nsw i32 %24, 1
  %26 = add nsw i32 %21, %25
  %27 = load ptr, ptr %6, align 8
  %28 = getelementptr inbounds nuw %struct.cbuf, ptr %27, i32 0, i32 4
  %29 = load i32, ptr %28, align 4
  %30 = add nsw i32 %29, 1
  %31 = srem i32 %26, %30
  store i32 %31, ptr %11, align 4
  %32 = load i32, ptr %7, align 4
  %33 = load i32, ptr %11, align 4
  %34 = icmp slt i32 %32, %33
  br i1 %34, label %35, label %37

35:                                               ; preds = %4
  %36 = load i32, ptr %7, align 4
  br label %39

37:                                               ; preds = %4
  %38 = load i32, ptr %11, align 4
  br label %39

39:                                               ; preds = %37, %35
  %40 = phi i32 [ %36, %35 ], [ %38, %37 ]
  store i32 %40, ptr %7, align 4
  %41 = load i32, ptr %7, align 4
  %42 = icmp eq i32 %41, 0
  br i1 %42, label %43, label %44

43:                                               ; preds = %39
  store i32 0, ptr %5, align 4
  store i32 1, ptr %14, align 4
  br label %124

44:                                               ; preds = %39
  %45 = load ptr, ptr %6, align 8
  %46 = getelementptr inbounds nuw %struct.cbuf, ptr %45, i32 0, i32 9
  %47 = load i32, ptr %46, align 8
  %48 = load i32, ptr %7, align 4
  %49 = sub nsw i32 %47, %48
  %50 = load ptr, ptr %6, align 8
  %51 = getelementptr inbounds nuw %struct.cbuf, ptr %50, i32 0, i32 4
  %52 = load i32, ptr %51, align 4
  %53 = add nsw i32 %52, 1
  %54 = add nsw i32 %49, %53
  %55 = load ptr, ptr %6, align 8
  %56 = getelementptr inbounds nuw %struct.cbuf, ptr %55, i32 0, i32 4
  %57 = load i32, ptr %56, align 4
  %58 = add nsw i32 %57, 1
  %59 = srem i32 %54, %58
  store i32 %59, ptr %13, align 4
  %60 = load i32, ptr %7, align 4
  store i32 %60, ptr %10, align 4
  store i32 0, ptr %12, align 4
  br label %61

61:                                               ; preds = %113, %44
  %62 = load i32, ptr %10, align 4
  %63 = icmp sgt i32 %62, 0
  br i1 %63, label %64, label %114

64:                                               ; preds = %61
  %65 = load i32, ptr %10, align 4
  %66 = load ptr, ptr %6, align 8
  %67 = getelementptr inbounds nuw %struct.cbuf, ptr %66, i32 0, i32 4
  %68 = load i32, ptr %67, align 4
  %69 = add nsw i32 %68, 1
  %70 = load i32, ptr %13, align 4
  %71 = sub nsw i32 %69, %70
  %72 = icmp slt i32 %65, %71
  br i1 %72, label %73, label %75

73:                                               ; preds = %64
  %74 = load i32, ptr %10, align 4
  br label %82

75:                                               ; preds = %64
  %76 = load ptr, ptr %6, align 8
  %77 = getelementptr inbounds nuw %struct.cbuf, ptr %76, i32 0, i32 4
  %78 = load i32, ptr %77, align 4
  %79 = add nsw i32 %78, 1
  %80 = load i32, ptr %13, align 4
  %81 = sub nsw i32 %79, %80
  br label %82

82:                                               ; preds = %75, %73
  %83 = phi i32 [ %74, %73 ], [ %81, %75 ]
  store i32 %83, ptr %11, align 4
  %84 = load ptr, ptr %8, align 8
  %85 = load ptr, ptr %6, align 8
  %86 = getelementptr inbounds nuw %struct.cbuf, ptr %85, i32 0, i32 11
  %87 = load ptr, ptr %86, align 8
  %88 = load i32, ptr %13, align 4
  %89 = sext i32 %88 to i64
  %90 = getelementptr inbounds i8, ptr %87, i64 %89
  %91 = load ptr, ptr %9, align 8
  %92 = load i32, ptr %11, align 4
  %93 = call i32 %84(ptr noundef %90, ptr noundef %91, i32 noundef %92)
  store i32 %93, ptr %12, align 4
  %94 = load i32, ptr %12, align 4
  %95 = icmp sgt i32 %94, 0
  br i1 %95, label %96, label %108

96:                                               ; preds = %82
  %97 = load i32, ptr %12, align 4
  %98 = load i32, ptr %10, align 4
  %99 = sub nsw i32 %98, %97
  store i32 %99, ptr %10, align 4
  %100 = load i32, ptr %13, align 4
  %101 = load i32, ptr %12, align 4
  %102 = add nsw i32 %100, %101
  %103 = load ptr, ptr %6, align 8
  %104 = getelementptr inbounds nuw %struct.cbuf, ptr %103, i32 0, i32 4
  %105 = load i32, ptr %104, align 4
  %106 = add nsw i32 %105, 1
  %107 = srem i32 %102, %106
  store i32 %107, ptr %13, align 4
  br label %108

108:                                              ; preds = %96, %82
  %109 = load i32, ptr %11, align 4
  %110 = load i32, ptr %12, align 4
  %111 = icmp ne i32 %109, %110
  br i1 %111, label %112, label %113

112:                                              ; preds = %108
  br label %114

113:                                              ; preds = %108
  br label %61, !llvm.loop !13

114:                                              ; preds = %112, %61
  %115 = load i32, ptr %7, align 4
  %116 = load i32, ptr %10, align 4
  %117 = sub nsw i32 %115, %116
  store i32 %117, ptr %11, align 4
  %118 = load i32, ptr %11, align 4
  %119 = icmp eq i32 %118, 0
  br i1 %119, label %120, label %122

120:                                              ; preds = %114
  %121 = load i32, ptr %12, align 4
  store i32 %121, ptr %5, align 4
  store i32 1, ptr %14, align 4
  br label %124

122:                                              ; preds = %114
  %123 = load i32, ptr %11, align 4
  store i32 %123, ptr %5, align 4
  store i32 1, ptr %14, align 4
  br label %124

124:                                              ; preds = %122, %120, %43
  call void @llvm.lifetime.end.p0(i64 4, ptr %13) #8
  call void @llvm.lifetime.end.p0(i64 4, ptr %12) #8
  call void @llvm.lifetime.end.p0(i64 4, ptr %11) #8
  call void @llvm.lifetime.end.p0(i64 4, ptr %10) #8
  %125 = load i32, ptr %5, align 4
  ret i32 %125
}

; Function Attrs: nounwind uwtable
define dso_local i32 @cbuf_replay_to_fd(ptr noundef %0, i32 noundef %1, i32 noundef %2) #0 {
  %4 = alloca i32, align 4
  %5 = alloca ptr, align 8
  %6 = alloca i32, align 4
  %7 = alloca i32, align 4
  %8 = alloca i32, align 4
  %9 = alloca i32, align 4
  %10 = alloca i32, align 4
  %11 = alloca i32, align 4
  store ptr %0, ptr %5, align 8
  store i32 %1, ptr %6, align 4
  store i32 %2, ptr %7, align 4
  call void @llvm.lifetime.start.p0(i64 4, ptr %8) #8
  store i32 0, ptr %8, align 4
  %12 = load i32, ptr %6, align 4
  %13 = icmp slt i32 %12, 0
  br i1 %13, label %17, label %14

14:                                               ; preds = %3
  %15 = load i32, ptr %7, align 4
  %16 = icmp slt i32 %15, -1
  br i1 %16, label %17, label %19

17:                                               ; preds = %14, %3
  %18 = call ptr @__errno_location() #9
  store i32 22, ptr %18, align 4
  store i32 -1, ptr %4, align 4
  store i32 1, ptr %9, align 4
  br label %63

19:                                               ; preds = %14
  br label %20

20:                                               ; preds = %19
  call void @llvm.lifetime.start.p0(i64 4, ptr %10) #8
  %21 = load ptr, ptr %5, align 8
  %22 = getelementptr inbounds nuw %struct.cbuf, ptr %21, i32 0, i32 0
  %23 = call i32 @pthread_mutex_lock(ptr noundef %22) #8
  store i32 %23, ptr %10, align 4
  %24 = load i32, ptr %10, align 4
  %25 = icmp ne i32 %24, 0
  br i1 %25, label %26, label %29

26:                                               ; preds = %20
  %27 = load i32, ptr %10, align 4
  %28 = call ptr @__errno_location() #9
  store i32 %27, ptr %28, align 4
  call void (ptr, ...) @fatal_abort(ptr noundef @.str.2, ptr noundef @__func__.cbuf_replay_to_fd) #10
  unreachable

29:                                               ; preds = %20
  call void @llvm.lifetime.end.p0(i64 4, ptr %10) #8
  br label %30

30:                                               ; preds = %29
  br label %31

31:                                               ; preds = %30
  %32 = load i32, ptr %7, align 4
  %33 = icmp eq i32 %32, -1
  br i1 %33, label %34, label %42

34:                                               ; preds = %31
  %35 = load ptr, ptr %5, align 8
  %36 = getelementptr inbounds nuw %struct.cbuf, ptr %35, i32 0, i32 4
  %37 = load i32, ptr %36, align 4
  %38 = load ptr, ptr %5, align 8
  %39 = getelementptr inbounds nuw %struct.cbuf, ptr %38, i32 0, i32 5
  %40 = load i32, ptr %39, align 8
  %41 = sub nsw i32 %37, %40
  store i32 %41, ptr %7, align 4
  br label %42

42:                                               ; preds = %34, %31
  %43 = load i32, ptr %7, align 4
  %44 = icmp sgt i32 %43, 0
  br i1 %44, label %45, label %49

45:                                               ; preds = %42
  %46 = load ptr, ptr %5, align 8
  %47 = load i32, ptr %7, align 4
  %48 = call i32 @cbuf_replayer(ptr noundef %46, i32 noundef %47, ptr noundef @cbuf_put_fd, ptr noundef %6)
  store i32 %48, ptr %8, align 4
  br label %49

49:                                               ; preds = %45, %42
  br label %50

50:                                               ; preds = %49
  call void @llvm.lifetime.start.p0(i64 4, ptr %11) #8
  %51 = load ptr, ptr %5, align 8
  %52 = getelementptr inbounds nuw %struct.cbuf, ptr %51, i32 0, i32 0
  %53 = call i32 @pthread_mutex_unlock(ptr noundef %52) #8
  store i32 %53, ptr %11, align 4
  %54 = load i32, ptr %11, align 4
  %55 = icmp ne i32 %54, 0
  br i1 %55, label %56, label %59

56:                                               ; preds = %50
  %57 = load i32, ptr %11, align 4
  %58 = call ptr @__errno_location() #9
  store i32 %57, ptr %58, align 4
  call void (ptr, ...) @fatal_abort(ptr noundef @.str.3, ptr noundef @__func__.cbuf_replay_to_fd) #10
  unreachable

59:                                               ; preds = %50
  call void @llvm.lifetime.end.p0(i64 4, ptr %11) #8
  br label %60

60:                                               ; preds = %59
  br label %61

61:                                               ; preds = %60
  %62 = load i32, ptr %8, align 4
  store i32 %62, ptr %4, align 4
  store i32 1, ptr %9, align 4
  br label %63

63:                                               ; preds = %61, %17
  call void @llvm.lifetime.end.p0(i64 4, ptr %8) #8
  %64 = load i32, ptr %4, align 4
  ret i32 %64
}