; Function Attrs: nounwind uwtable
define dso_local i32 @cbuf_replay_to_fd(ptr noundef %0, i32 noundef %1, i32 noundef %2) local_unnamed_addr #0 {
  %4 = icmp slt i32 %1, 0
  %5 = icmp slt i32 %2, -1
  %or.cond = or i1 %4, %5
  br i1 %or.cond, label %6, label %8

6:                                                ; preds = %3
  %7 = tail call ptr @__errno_location() #14
  store i32 22, ptr %7, align 4
  br label %68

8:                                                ; preds = %3
  %9 = tail call i32 @pthread_mutex_lock(ptr noundef %0) #15
  %.not = icmp eq i32 %9, 0
  br i1 %.not, label %12, label %10

10:                                               ; preds = %8
  %11 = tail call ptr @__errno_location() #14
  store i32 %9, ptr %11, align 4
  tail call void (ptr, ...) @fatal_abort(ptr noundef nonnull @.str.2, ptr noundef nonnull @__func__.cbuf_replay_to_fd) #16
  unreachable

12:                                               ; preds = %8
  %13 = icmp eq i32 %2, -1
  br i1 %13, label %14, label %20

14:                                               ; preds = %12
  %15 = getelementptr inbounds nuw i8, ptr %0, i64 52
  %16 = load i32, ptr %15, align 4
  %17 = getelementptr inbounds nuw i8, ptr %0, i64 56
  %18 = load i32, ptr %17, align 8
  %19 = sub nsw i32 %16, %18
  br label %20

20:                                               ; preds = %14, %12
  %.015 = phi i32 [ %19, %14 ], [ %2, %12 ]
  %21 = icmp sgt i32 %.015, 0
  br i1 %21, label %22, label %cbuf_replayer.exit

22:                                               ; preds = %20
  %23 = getelementptr inbounds nuw i8, ptr %0, i64 72
  %24 = load i32, ptr %23, align 8
  %25 = getelementptr inbounds nuw i8, ptr %0, i64 76
  %26 = load i32, ptr %25, align 4
  %27 = sub i32 %24, %26
  %28 = getelementptr inbounds nuw i8, ptr %0, i64 52
  %29 = load i32, ptr %28, align 4
  %30 = add nsw i32 %29, 1
  %31 = add nsw i32 %27, %30
  %32 = srem i32 %31, %30
  %33 = tail call i32 @llvm.smin.i32(i32 %.015, i32 %32)
  %34 = icmp eq i32 %32, 0
  br i1 %34, label %cbuf_replayer.exit, label %35

35:                                               ; preds = %22
  %.old1.i = icmp sgt i32 %32, 0
  br i1 %.old1.i, label %.preheader.i, label %.loopexit.i

.preheader.i:                                     ; preds = %35
  %36 = add i32 %30, %24
  %37 = sub i32 %36, %33
  %38 = srem i32 %37, %30
  %39 = getelementptr inbounds nuw i8, ptr %0, i64 80
  br label %40

40:                                               ; preds = %cbuf_put_fd.exit.thread, %.preheader.i
  %.042.i = phi i32 [ %.2.i, %cbuf_put_fd.exit.thread ], [ %33, %.preheader.i ]
  %.0.i = phi i32 [ %.1.i, %cbuf_put_fd.exit.thread ], [ %38, %.preheader.i ]
  %41 = load i32, ptr %28, align 4
  %reass.sub = sub i32 %41, %.0.i
  %42 = add i32 %reass.sub, 1
  %.042..i = tail call i32 @llvm.smin.i32(i32 %.042.i, i32 %42)
  %43 = load ptr, ptr %39, align 8
  %44 = sext i32 %.0.i to i64
  %45 = getelementptr inbounds i8, ptr %43, i64 %44
  %46 = sext i32 %.042..i to i64
  br label %47

47:                                               ; preds = %51, %40
  %48 = tail call i64 @write(i32 noundef %1, ptr noundef readonly %45, i64 noundef %46) #15
  %49 = trunc i64 %48 to i32
  %50 = icmp slt i32 %49, 0
  br i1 %50, label %51, label %cbuf_put_fd.exit

51:                                               ; preds = %47
  %52 = tail call ptr @__errno_location() #14
  %53 = load i32, ptr %52, align 4
  %54 = icmp eq i32 %53, 4
  br i1 %54, label %47, label %cbuf_put_fd.exit.thread, !llvm.loop !16

cbuf_put_fd.exit:                                 ; preds = %47
  %.not21 = icmp eq i32 %49, 0
  br i1 %.not21, label %cbuf_put_fd.exit.thread, label %55

55:                                               ; preds = %cbuf_put_fd.exit
  %56 = sub nsw i32 %.042.i, %49
  %57 = add nsw i32 %.0.i, %49
  %58 = load i32, ptr %28, align 4
  %59 = add nsw i32 %58, 1
  %60 = srem i32 %57, %59
  br label %cbuf_put_fd.exit.thread

cbuf_put_fd.exit.thread:                          ; preds = %51, %55, %cbuf_put_fd.exit
  %.2.i = phi i32 [ %56, %55 ], [ %.042.i, %cbuf_put_fd.exit ], [ %.042.i, %51 ]
  %.1.i = phi i32 [ %60, %55 ], [ %.0.i, %cbuf_put_fd.exit ], [ %.0.i, %51 ]
  %61 = icmp eq i32 %.042..i, %49
  %62 = icmp sgt i32 %.2.i, 0
  %or.cond.i = select i1 %61, i1 %62, i1 false
  br i1 %or.cond.i, label %40, label %.loopexit.i, !llvm.loop !13

.loopexit.i:                                      ; preds = %cbuf_put_fd.exit.thread, %35
  %.143.i = phi i32 [ %33, %35 ], [ %.2.i, %cbuf_put_fd.exit.thread ]
  %.041.i = phi i32 [ 0, %35 ], [ %49, %cbuf_put_fd.exit.thread ]
  %63 = sub nsw i32 %33, %.143.i
  %64 = icmp eq i32 %33, %.143.i
  %.041..i = select i1 %64, i32 %.041.i, i32 %63
  br label %cbuf_replayer.exit

cbuf_replayer.exit:                               ; preds = %.loopexit.i, %22, %20
  %.016 = phi i32 [ 0, %20 ], [ 0, %22 ], [ %.041..i, %.loopexit.i ]
  %65 = tail call i32 @pthread_mutex_unlock(ptr noundef %0) #15
  %.not20 = icmp eq i32 %65, 0
  br i1 %.not20, label %68, label %66

66:                                               ; preds = %cbuf_replayer.exit
  %67 = tail call ptr @__errno_location() #14
  store i32 %65, ptr %67, align 4
  tail call void (ptr, ...) @fatal_abort(ptr noundef nonnull @.str.3, ptr noundef nonnull @__func__.cbuf_replay_to_fd) #16
  unreachable

68:                                               ; preds = %cbuf_replayer.exit, %6
  %.0 = phi i32 [ -1, %6 ], [ %.016, %cbuf_replayer.exit ]
  ret i32 %.0
}